; Function Attrs: mustprogress nounwind uwtable
define hidden noundef ptr @_ZN6hermes11evalToInt32ERNS_9IRBuilderEPNS_7LiteralE(ptr noundef nonnull align 8 dereferenceable(40) %builder, ptr noundef readonly captures(none) %operand) local_unnamed_addr #0 {
entry:
  %0 = load i8, ptr %operand, align 8
  switch i8 %0, label %if.end6.i [
    i8 114, label %if.end
    i8 117, label %if.then3.i
  ]

if.then3.i:                                       ; preds = %entry
  %value.i.i = getelementptr inbounds nuw i8, ptr %operand, i64 40
  %1 = load i8, ptr %value.i.i, align 8
  %tobool.i.i = trunc i8 %1 to i1
  %conv.i = uitofp i1 %tobool.i.i to double
  %call5.i = tail call noundef ptr @_ZN6hermes9IRBuilder16getLiteralNumberEd(ptr noundef nonnull align 8 dereferenceable(40) %builder, double noundef %conv.i) #6
  br label %_ZN6hermes12evalToNumberERNS_9IRBuilderEPNS_7LiteralE.exit

if.end6.i:                                        ; preds = %entry
  %valueType.i.i = getelementptr inbounds nuw i8, ptr %operand, i64 2
  %retval.sroa.0.0.copyload.i.i = load i32, ptr %valueType.i.i, align 2
  %ref.tmp.sroa.0.0.extract.trunc.i = trunc i32 %retval.sroa.0.0.copyload.i.i to i16
  switch i16 %ref.tmp.sroa.0.0.extract.trunc.i, label %return [
    i16 2, label %if.then9.i
    i16 4, label %if.then15.i
  ]

if.then9.i:                                       ; preds = %if.end6.i
  %call10.i = tail call noundef ptr @_ZN6hermes9IRBuilder13getLiteralNaNEv(ptr noundef nonnull align 8 dereferenceable(40) %builder) #6
  br label %_ZN6hermes12evalToNumberERNS_9IRBuilderEPNS_7LiteralE.exit

if.then15.i:                                      ; preds = %if.end6.i
  %call16.i = tail call noundef ptr @_ZN6hermes9IRBuilder22getLiteralPositiveZeroEv(ptr noundef nonnull align 8 dereferenceable(40) %builder) #6
  br label %_ZN6hermes12evalToNumberERNS_9IRBuilderEPNS_7LiteralE.exit

_ZN6hermes12evalToNumberERNS_9IRBuilderEPNS_7LiteralE.exit: ; preds = %if.then3.i, %if.then9.i, %if.then15.i
  %retval.0.i = phi ptr [ %call5.i, %if.then3.i ], [ %call10.i, %if.then9.i ], [ %call16.i, %if.then15.i ]
  %tobool.not = icmp eq ptr %retval.0.i, null
  br i1 %tobool.not, label %return, label %if.end

if.end:                                           ; preds = %entry, %_ZN6hermes12evalToNumberERNS_9IRBuilderEPNS_7LiteralE.exit
  %retval.0.i10 = phi ptr [ %retval.0.i, %_ZN6hermes12evalToNumberERNS_9IRBuilderEPNS_7LiteralE.exit ], [ %operand, %entry ]
  %value.i = getelementptr inbounds nuw i8, ptr %retval.0.i10, i64 48
  %2 = load double, ptr %value.i, align 8
  %conv4.i = fptoui double %2 to i64
  %shl.i = shl i64 %conv4.i, 1
  %shr.i = ashr exact i64 %shl.i, 1
  %conv5.i = sitofp i64 %shr.i to double
  %cmp6.i = fcmp oeq double %2, %conv5.i
  br i1 %cmp6.i, label %if.then8.i, label %if.end11.i

if.then8.i:                                       ; preds = %if.end
  %conv9.i = trunc i64 %conv4.i to i32
  br label %_ZN6hermes15truncateToInt32Ed.exit

if.end11.i:                                       ; preds = %if.end
  %call.i = tail call noundef i32 @_ZN6hermes23truncateToInt32SlowPathEd(double noundef %2) #6
  br label %_ZN6hermes15truncateToInt32Ed.exit

_ZN6hermes15truncateToInt32Ed.exit:               ; preds = %if.then8.i, %if.end11.i
  %retval.0.i3 = phi i32 [ %call.i, %if.end11.i ], [ %conv9.i, %if.then8.i ]
  %conv = sitofp i32 %retval.0.i3 to double
  %call3 = tail call noundef ptr @_ZN6hermes9IRBuilder16getLiteralNumberEd(ptr noundef nonnull align 8 dereferenceable(40) %builder, double noundef %conv) #6
  br label %return

return:                                           ; preds = %if.end6.i, %_ZN6hermes12evalToNumberERNS_9IRBuilderEPNS_7LiteralE.exit, %_ZN6hermes15truncateToInt32Ed.exit
  %retval.0 = phi ptr [ %call3, %_ZN6hermes15truncateToInt32Ed.exit ], [ null, %_ZN6hermes12evalToNumberERNS_9IRBuilderEPNS_7LiteralE.exit ], [ null, %if.end6.i ]
  ret ptr %retval.0
}